target datalayout = "e-m:e-p270:32:32-p271:32:32-p272:64:64-i64:64-i128:128-f80:128-n8:16:32:64-S128"
target triple = "x86_64-pc-linux-gnu"

%struct.PJconsts = type <{ ptr, ptr, ptr, ptr, ptr, ptr, ptr, ptr, ptr, ptr, ptr, ptr, i32, [4 x i8], ptr, ptr, ptr, ptr, ptr, ptr, ptr, ptr, double, double, double, double, double, double, double, double, double, double, double, double, double, double, double, double, double, double, double, double, double, double, i32, i32, i32, i32, i32, i32, i32, i32, i32, i32, i32, [4 x i8], ptr, ptr, ptr, ptr, ptr, ptr, double, double, double, double, double, double, double, double, double, double, double, i32, [4 x i8], [7 x double], i32, [4 x i8], ptr, ptr, double, double, i32, [4 x i8], %"class.std::shared_ptr", i8, [7 x i8], double, i8, [7 x i8], %"class.std::__cxx11::basic_string", %"class.std::__cxx11::basic_string", %"class.std::__cxx11::basic_string", i8, [7 x i8], %"class.std::vector", i32, [4 x i8], %"class.std::vector.3", i32, i8, i8, i8, i8 }>
%"class.std::shared_ptr" = type { %"class.std::__shared_ptr" }
%"class.std::__shared_ptr" = type { ptr, %"class.std::__shared_count" }
%"class.std::__shared_count" = type { ptr }
%"class.std::__cxx11::basic_string" = type { %"struct.std::__cxx11::basic_string<char>::_Alloc_hider", i64, %union.anon }
%"struct.std::__cxx11::basic_string<char>::_Alloc_hider" = type { ptr }
%union.anon = type { i64, [8 x i8] }
%"class.std::vector" = type { %"struct.std::_Vector_base" }
%"struct.std::_Vector_base" = type { %"struct.std::_Vector_base<osgeo::proj::operation::GridDescription, std::allocator<osgeo::proj::operation::GridDescription>>::_Vector_impl" }
%"struct.std::_Vector_base<osgeo::proj::operation::GridDescription, std::allocator<osgeo::proj::operation::GridDescription>>::_Vector_impl" = type { %"struct.std::_Vector_base<osgeo::proj::operation::GridDescription, std::allocator<osgeo::proj::operation::GridDescription>>::_Vector_impl_data" }
%"struct.std::_Vector_base<osgeo::proj::operation::GridDescription, std::allocator<osgeo::proj::operation::GridDescription>>::_Vector_impl_data" = type { ptr, ptr, ptr }
%"class.std::vector.3" = type { %"struct.std::_Vector_base.4" }
%"struct.std::_Vector_base.4" = type { %"struct.std::_Vector_base<PJCoordOperation, std::allocator<PJCoordOperation>>::_Vector_impl" }
%"struct.std::_Vector_base<PJCoordOperation, std::allocator<PJCoordOperation>>::_Vector_impl" = type { %"struct.std::_Vector_base<PJCoordOperation, std::allocator<PJCoordOperation>>::_Vector_impl_data" }
%"struct.std::_Vector_base<PJCoordOperation, std::allocator<PJCoordOperation>>::_Vector_impl_data" = type { ptr, ptr, ptr }
%"struct.(anonymous namespace)::pj_gstmerc_data" = type { double, double, double, double, double, double, double }

; Function Attrs: mustprogress uwtable
define hidden noundef ptr @_Z36pj_projection_specific_setup_gstmercP8PJconsts(ptr noundef %0) #0 {
  %2 = alloca ptr, align 8
  %3 = alloca ptr, align 8
  %4 = alloca ptr, align 8
  store ptr %0, ptr %3, align 8
  %5 = call noalias ptr @calloc(i64 noundef 1, i64 noundef 56) #6
  store ptr %5, ptr %4, align 8
  %6 = load ptr, ptr %4, align 8
  %7 = icmp eq ptr null, %6
  br i1 %7, label %8, label %11

8:                                                ; preds = %1
  %9 = load ptr, ptr %3, align 8
  %10 = call noundef ptr @_Z21pj_default_destructorP8PJconstsi(ptr noundef %9, i32 noundef 4096)
  store ptr %10, ptr %2, align 8
  br label %132

11:                                               ; preds = %1
  %12 = load ptr, ptr %4, align 8
  %13 = load ptr, ptr %3, align 8
  %14 = getelementptr inbounds %struct.PJconsts, ptr %13, i32 0, i32 11
  store ptr %12, ptr %14, align 8
  %15 = load ptr, ptr %3, align 8
  %16 = getelementptr inbounds %struct.PJconsts, ptr %15, i32 0, i32 62
  %17 = load double, ptr %16, align 8
  %18 = load ptr, ptr %4, align 8
  %19 = getelementptr inbounds %"struct.(anonymous namespace)::pj_gstmerc_data", ptr %18, i32 0, i32 0
  store double %17, ptr %19, align 8
  %20 = load ptr, ptr %3, align 8
  %21 = getelementptr inbounds %struct.PJconsts, ptr %20, i32 0, i32 28
  %22 = load double, ptr %21, align 8
  %23 = load ptr, ptr %3, align 8
  %24 = getelementptr inbounds %struct.PJconsts, ptr %23, i32 0, i32 63
  %25 = load double, ptr %24, align 8
  %26 = call double @cos(double noundef %25) #7
  %27 = call double @pow(double noundef %26, double noundef 4.000000e+00) #7
  %28 = fmul double %22, %27
  %29 = load ptr, ptr %3, align 8
  %30 = getelementptr inbounds %struct.PJconsts, ptr %29, i32 0, i32 28
  %31 = load double, ptr %30, align 8
  %32 = fsub double 1.000000e+00, %31
  %33 = fdiv double %28, %32
  %34 = fadd double 1.000000e+00, %33
  %35 = call double @sqrt(double noundef %34) #7
  %36 = load ptr, ptr %4, align 8
  %37 = getelementptr inbounds %"struct.(anonymous namespace)::pj_gstmerc_data", ptr %36, i32 0, i32 3
  store double %35, ptr %37, align 8
  %38 = load ptr, ptr %3, align 8
  %39 = getelementptr inbounds %struct.PJconsts, ptr %38, i32 0, i32 63
  %40 = load double, ptr %39, align 8
  %41 = call double @sin(double noundef %40) #7
  %42 = load ptr, ptr %4, align 8
  %43 = getelementptr inbounds %"struct.(anonymous namespace)::pj_gstmerc_data", ptr %42, i32 0, i32 3
  %44 = load double, ptr %43, align 8
  %45 = fdiv double %41, %44
  %46 = call double @asin(double noundef %45) #7
  %47 = load ptr, ptr %4, align 8
  %48 = getelementptr inbounds %"struct.(anonymous namespace)::pj_gstmerc_data", ptr %47, i32 0, i32 1
  store double %46, ptr %48, align 8
  %49 = load ptr, ptr %4, align 8
  %50 = getelementptr inbounds %"struct.(anonymous namespace)::pj_gstmerc_data", ptr %49, i32 0, i32 1
  %51 = load double, ptr %50, align 8
  %52 = fneg double %51
  %53 = load ptr, ptr %3, align 8
  %54 = getelementptr inbounds %struct.PJconsts, ptr %53, i32 0, i32 63
  %55 = load double, ptr %54, align 8
  %56 = call double @sin(double noundef %55) #7
  %57 = fneg double %56
  %58 = load ptr, ptr %4, align 8
  %59 = getelementptr inbounds %"struct.(anonymous namespace)::pj_gstmerc_data", ptr %58, i32 0, i32 3
  %60 = load double, ptr %59, align 8
  %61 = fdiv double %57, %60
  %62 = call noundef double @_Z7pj_tsfnddd(double noundef %52, double noundef %61, double noundef 0.000000e+00)
  %63 = call double @log(double noundef %62) #7
  %64 = load ptr, ptr %4, align 8
  %65 = getelementptr inbounds %"struct.(anonymous namespace)::pj_gstmerc_data", ptr %64, i32 0, i32 3
  %66 = load double, ptr %65, align 8
  %67 = load ptr, ptr %3, align 8
  %68 = getelementptr inbounds %struct.PJconsts, ptr %67, i32 0, i32 63
  %69 = load double, ptr %68, align 8
  %70 = fneg double %69
  %71 = load ptr, ptr %3, align 8
  %72 = getelementptr inbounds %struct.PJconsts, ptr %71, i32 0, i32 63
  %73 = load double, ptr %72, align 8
  %74 = call double @sin(double noundef %73) #7
  %75 = fneg double %74
  %76 = load ptr, ptr %3, align 8
  %77 = getelementptr inbounds %struct.PJconsts, ptr %76, i32 0, i32 27
  %78 = load double, ptr %77, align 8
  %79 = call noundef double @_Z7pj_tsfnddd(double noundef %70, double noundef %75, double noundef %78)
  %80 = call double @log(double noundef %79) #7
  %81 = fneg double %66
  %82 = call double @llvm.fmuladd.f64(double %81, double %80, double %63)
  %83 = load ptr, ptr %4, align 8
  %84 = getelementptr inbounds %"struct.(anonymous namespace)::pj_gstmerc_data", ptr %83, i32 0, i32 2
  store double %82, ptr %84, align 8
  %85 = load ptr, ptr %3, align 8
  %86 = getelementptr inbounds %struct.PJconsts, ptr %85, i32 0, i32 68
  %87 = load double, ptr %86, align 8
  %88 = load ptr, ptr %3, align 8
  %89 = getelementptr inbounds %struct.PJconsts, ptr %88, i32 0, i32 22
  %90 = load double, ptr %89, align 8
  %91 = fmul double %87, %90
  %92 = load ptr, ptr %3, align 8
  %93 = getelementptr inbounds %struct.PJconsts, ptr %92, i32 0, i32 28
  %94 = load double, ptr %93, align 8
  %95 = fsub double 1.000000e+00, %94
  %96 = call double @sqrt(double noundef %95) #7
  %97 = fmul double %91, %96
  %98 = load ptr, ptr %3, align 8
  %99 = getelementptr inbounds %struct.PJconsts, ptr %98, i32 0, i32 28
  %100 = load double, ptr %99, align 8
  %101 = load ptr, ptr %3, align 8
  %102 = getelementptr inbounds %struct.PJconsts, ptr %101, i32 0, i32 63
  %103 = load double, ptr %102, align 8
  %104 = call double @sin(double noundef %103) #7
  %105 = fmul double %100, %104
  %106 = load ptr, ptr %3, align 8
  %107 = getelementptr inbounds %struct.PJconsts, ptr %106, i32 0, i32 63
  %108 = load double, ptr %107, align 8
  %109 = call double @sin(double noundef %108) #7
  %110 = fneg double %105
  %111 = call double @llvm.fmuladd.f64(double %110, double %109, double 1.000000e+00)
  %112 = fdiv double %97, %111
  %113 = load ptr, ptr %4, align 8
  %114 = getelementptr inbounds %"struct.(anonymous namespace)::pj_gstmerc_data", ptr %113, i32 0, i32 4
  store double %112, ptr %114, align 8
  %115 = load ptr, ptr %4, align 8
  %116 = getelementptr inbounds %"struct.(anonymous namespace)::pj_gstmerc_data", ptr %115, i32 0, i32 5
  store double 0.000000e+00, ptr %116, align 8
  %117 = load ptr, ptr %4, align 8
  %118 = getelementptr inbounds %"struct.(anonymous namespace)::pj_gstmerc_data", ptr %117, i32 0, i32 4
  %119 = load double, ptr %118, align 8
  %120 = fneg double %119
  %121 = load ptr, ptr %4, align 8
  %122 = getelementptr inbounds %"struct.(anonymous namespace)::pj_gstmerc_data", ptr %121, i32 0, i32 1
  %123 = load double, ptr %122, align 8
  %124 = fmul double %120, %123
  %125 = load ptr, ptr %4, align 8
  %126 = getelementptr inbounds %"struct.(anonymous namespace)::pj_gstmerc_data", ptr %125, i32 0, i32 6
  store double %124, ptr %126, align 8
  %127 = load ptr, ptr %3, align 8
  %128 = getelementptr inbounds %struct.PJconsts, ptr %127, i32 0, i32 15
  store ptr @_ZL17gstmerc_s_inverse5PJ_XYP8PJconsts, ptr %128, align 8
  %129 = load ptr, ptr %3, align 8
  %130 = getelementptr inbounds %struct.PJconsts, ptr %129, i32 0, i32 14
  store ptr @_ZL17gstmerc_s_forward5PJ_LPP8PJconsts, ptr %130, align 8
  %131 = load ptr, ptr %3, align 8
  store ptr %131, ptr %2, align 8
  br label %132

132:                                              ; preds = %11, %8
  %133 = load ptr, ptr %2, align 8
  ret ptr %133
}