; Function Attrs: mustprogress uwtable
define hidden noundef ptr @_Z36pj_projection_specific_setup_gstmercP8PJconsts(ptr noundef %0) local_unnamed_addr #0 {
  %2 = tail call noalias dereferenceable_or_null(56) ptr @calloc(i64 noundef 1, i64 noundef 56) #6
  %3 = icmp eq ptr %2, null
  br i1 %3, label %4, label %6

4:                                                ; preds = %1
  %5 = tail call noundef ptr @_Z21pj_default_destructorP8PJconstsi(ptr noundef %0, i32 noundef 4096)
  br label %75

6:                                                ; preds = %1
  %7 = getelementptr inbounds i8, ptr %0, i64 88
  store ptr %2, ptr %7, align 8
  %8 = getelementptr inbounds i8, ptr %0, i64 440
  %9 = load double, ptr %8, align 8
  store double %9, ptr %2, align 8
  %10 = getelementptr inbounds i8, ptr %0, i64 216
  %11 = load double, ptr %10, align 8
  %12 = getelementptr inbounds i8, ptr %0, i64 448
  %13 = load double, ptr %12, align 8
  %14 = tail call double @cos(double noundef %13) #7
  %15 = tail call double @pow(double noundef %14, double noundef 4.000000e+00) #7
  %16 = fmul double %11, %15
  %17 = load double, ptr %10, align 8
  %18 = fsub double 1.000000e+00, %17
  %19 = fdiv double %16, %18
  %20 = fadd double %19, 1.000000e+00
  %21 = tail call double @sqrt(double noundef %20) #7
  %22 = getelementptr inbounds i8, ptr %2, i64 24
  store double %21, ptr %22, align 8
  %23 = load double, ptr %12, align 8
  %24 = tail call double @sin(double noundef %23) #7
  %25 = load double, ptr %22, align 8
  %26 = fdiv double %24, %25
  %27 = tail call double @asin(double noundef %26) #7
  %28 = getelementptr inbounds i8, ptr %2, i64 8
  store double %27, ptr %28, align 8
  %29 = fneg double %27
  %30 = load double, ptr %12, align 8
  %31 = tail call double @sin(double noundef %30) #7
  %32 = fneg double %31
  %33 = load double, ptr %22, align 8
  %34 = fdiv double %32, %33
  %35 = tail call noundef double @_Z7pj_tsfnddd(double noundef %29, double noundef %34, double noundef 0.000000e+00)
  %36 = tail call double @log(double noundef %35) #7
  %37 = load double, ptr %22, align 8
  %38 = load double, ptr %12, align 8
  %39 = fneg double %38
  %40 = tail call double @sin(double noundef %38) #7
  %41 = fneg double %40
  %42 = getelementptr inbounds i8, ptr %0, i64 208
  %43 = load double, ptr %42, align 8
  %44 = tail call noundef double @_Z7pj_tsfnddd(double noundef %39, double noundef %41, double noundef %43)
  %45 = tail call double @log(double noundef %44) #7
  %46 = fneg double %37
  %47 = tail call double @llvm.fmuladd.f64(double %46, double %45, double %36)
  %48 = getelementptr inbounds i8, ptr %2, i64 16
  store double %47, ptr %48, align 8
  %49 = getelementptr inbounds i8, ptr %0, i64 488
  %50 = load double, ptr %49, align 8
  %51 = getelementptr inbounds i8, ptr %0, i64 168
  %52 = load double, ptr %51, align 8
  %53 = fmul double %50, %52
  %54 = load double, ptr %10, align 8
  %55 = fsub double 1.000000e+00, %54
  %56 = tail call double @sqrt(double noundef %55) #7
  %57 = fmul double %53, %56
  %58 = load double, ptr %10, align 8
  %59 = load double, ptr %12, align 8
  %60 = tail call double @sin(double noundef %59) #7
  %61 = load double, ptr %12, align 8
  %62 = tail call double @sin(double noundef %61) #7
  %63 = fneg double %58
  %64 = fmul double %60, %63
  %65 = tail call double @llvm.fmuladd.f64(double %64, double %62, double 1.000000e+00)
  %66 = fdiv double %57, %65
  %67 = getelementptr inbounds i8, ptr %2, i64 32
  store double %66, ptr %67, align 8
  %68 = getelementptr inbounds i8, ptr %2, i64 40
  store double 0.000000e+00, ptr %68, align 8
  %69 = fneg double %66
  %70 = load double, ptr %28, align 8
  %71 = fmul double %70, %69
  %72 = getelementptr inbounds i8, ptr %2, i64 48
  store double %71, ptr %72, align 8
  %73 = getelementptr inbounds i8, ptr %0, i64 112
  store ptr @_ZL17gstmerc_s_inverse5PJ_XYP8PJconsts, ptr %73, align 8
  %74 = getelementptr inbounds i8, ptr %0, i64 104
  store ptr @_ZL17gstmerc_s_forward5PJ_LPP8PJconsts, ptr %74, align 8
  br label %75

75:                                               ; preds = %6, %4
  %.0 = phi ptr [ %5, %4 ], [ %0, %6 ]
  ret ptr %.0
}